target datalayout = "e-m:e-p270:32:32-p271:32:32-p272:64:64-i64:64-i128:128-f80:128-n8:16:32:64-S128"
target triple = "x86_64-unknown-linux-gnu"

%"class.QuantLib::Date" = type { i64 }
%"struct.std::pair" = type { %"class.QuantLib::Date", %"class.QuantLib::Date" }

; Function Attrs: mustprogress uwtable
define noundef double @_ZN8QuantLib21inflationYearFractionENS_9FrequencyEbRKNS_10DayCounterERKNS_4DateES6_(i32 noundef %f, i1 noundef zeroext %indexIsInterpolated, ptr noundef nonnull align 8 dereferenceable(16) %dayCounter, ptr noundef nonnull align 8 dereferenceable(8) %d1, ptr noundef nonnull align 8 dereferenceable(8) %d2) #2 {
entry:
  %f.addr = alloca i32, align 4
  %indexIsInterpolated.addr = alloca i8, align 1
  %dayCounter.addr = alloca ptr, align 8
  %d1.addr = alloca ptr, align 8
  %d2.addr = alloca ptr, align 8
  %t = alloca double, align 8
  %ref.tmp = alloca %"class.QuantLib::Date", align 8
  %ref.tmp1 = alloca %"class.QuantLib::Date", align 8
  %limD1 = alloca %"struct.std::pair", align 8
  %limD2 = alloca %"struct.std::pair", align 8
  %ref.tmp5 = alloca %"class.QuantLib::Date", align 8
  %ref.tmp6 = alloca %"class.QuantLib::Date", align 8
  store i32 %f, ptr %f.addr, align 4, !tbaa !9
  %storedv = zext i1 %indexIsInterpolated to i8
  store i8 %storedv, ptr %indexIsInterpolated.addr, align 1, !tbaa !45
  store ptr %dayCounter, ptr %dayCounter.addr, align 8, !tbaa !3
  store ptr %d1, ptr %d1.addr, align 8, !tbaa !3
  store ptr %d2, ptr %d2.addr, align 8, !tbaa !3
  call void @llvm.lifetime.start.p0(i64 8, ptr %t) #16
  store double 0.000000e+00, ptr %t, align 8, !tbaa !11
  %0 = load i8, ptr %indexIsInterpolated.addr, align 1, !tbaa !45, !range !41, !noundef !42
  %loadedv = trunc i8 %0 to i1
  br i1 %loadedv, label %if.then, label %if.else

if.then:                                          ; preds = %entry
  %1 = load ptr, ptr %dayCounter.addr, align 8, !tbaa !3
  %2 = load ptr, ptr %d1.addr, align 8, !tbaa !3
  %3 = load ptr, ptr %d2.addr, align 8, !tbaa !3
  call void @llvm.lifetime.start.p0(i64 8, ptr %ref.tmp) #16
  call void @_ZN8QuantLib4DateC1Ev(ptr noundef nonnull align 8 dereferenceable(8) %ref.tmp)
  call void @llvm.lifetime.start.p0(i64 8, ptr %ref.tmp1) #16
  call void @_ZN8QuantLib4DateC1Ev(ptr noundef nonnull align 8 dereferenceable(8) %ref.tmp1)
  %call = call noundef double @_ZNK8QuantLib10DayCounter12yearFractionERKNS_4DateES3_S3_S3_(ptr noundef nonnull align 8 dereferenceable(16) %1, ptr noundef nonnull align 8 dereferenceable(8) %2, ptr noundef nonnull align 8 dereferenceable(8) %3, ptr noundef nonnull align 8 dereferenceable(8) %ref.tmp, ptr noundef nonnull align 8 dereferenceable(8) %ref.tmp1)
  store double %call, ptr %t, align 8, !tbaa !11
  call void @llvm.lifetime.end.p0(i64 8, ptr %ref.tmp1) #16
  call void @llvm.lifetime.end.p0(i64 8, ptr %ref.tmp) #16
  br label %if.end

if.else:                                          ; preds = %entry
  call void @llvm.lifetime.start.p0(i64 16, ptr %limD1) #16
  %4 = load ptr, ptr %d1.addr, align 8, !tbaa !3
  %5 = load i32, ptr %f.addr, align 4, !tbaa !9
  %call2 = call { i64, i64 } @_ZN8QuantLib15inflationPeriodERKNS_4DateENS_9FrequencyE(ptr noundef nonnull align 8 dereferenceable(8) %4, i32 noundef %5)
  %6 = getelementptr inbounds nuw { i64, i64 }, ptr %limD1, i32 0, i32 0
  %7 = extractvalue { i64, i64 } %call2, 0
  store i64 %7, ptr %6, align 8
  %8 = getelementptr inbounds nuw { i64, i64 }, ptr %limD1, i32 0, i32 1
  %9 = extractvalue { i64, i64 } %call2, 1
  store i64 %9, ptr %8, align 8
  call void @llvm.lifetime.start.p0(i64 16, ptr %limD2) #16
  %10 = load ptr, ptr %d2.addr, align 8, !tbaa !3
  %11 = load i32, ptr %f.addr, align 4, !tbaa !9
  %call3 = call { i64, i64 } @_ZN8QuantLib15inflationPeriodERKNS_4DateENS_9FrequencyE(ptr noundef nonnull align 8 dereferenceable(8) %10, i32 noundef %11)
  %12 = getelementptr inbounds nuw { i64, i64 }, ptr %limD2, i32 0, i32 0
  %13 = extractvalue { i64, i64 } %call3, 0
  store i64 %13, ptr %12, align 8
  %14 = getelementptr inbounds nuw { i64, i64 }, ptr %limD2, i32 0, i32 1
  %15 = extractvalue { i64, i64 } %call3, 1
  store i64 %15, ptr %14, align 8
  %16 = load ptr, ptr %dayCounter.addr, align 8, !tbaa !3
  %first = getelementptr inbounds nuw %"struct.std::pair", ptr %limD1, i32 0, i32 0
  %first4 = getelementptr inbounds nuw %"struct.std::pair", ptr %limD2, i32 0, i32 0
  call void @llvm.lifetime.start.p0(i64 8, ptr %ref.tmp5) #16
  call void @_ZN8QuantLib4DateC1Ev(ptr noundef nonnull align 8 dereferenceable(8) %ref.tmp5)
  call void @llvm.lifetime.start.p0(i64 8, ptr %ref.tmp6) #16
  call void @_ZN8QuantLib4DateC1Ev(ptr noundef nonnull align 8 dereferenceable(8) %ref.tmp6)
  %call7 = call noundef double @_ZNK8QuantLib10DayCounter12yearFractionERKNS_4DateES3_S3_S3_(ptr noundef nonnull align 8 dereferenceable(16) %16, ptr noundef nonnull align 8 dereferenceable(8) %first, ptr noundef nonnull align 8 dereferenceable(8) %first4, ptr noundef nonnull align 8 dereferenceable(8) %ref.tmp5, ptr noundef nonnull align 8 dereferenceable(8) %ref.tmp6)
  store double %call7, ptr %t, align 8, !tbaa !11
  call void @llvm.lifetime.end.p0(i64 8, ptr %ref.tmp6) #16
  call void @llvm.lifetime.end.p0(i64 8, ptr %ref.tmp5) #16
  call void @llvm.lifetime.end.p0(i64 16, ptr %limD2) #16
  call void @llvm.lifetime.end.p0(i64 16, ptr %limD1) #16
  br label %if.end

if.end:                                           ; preds = %if.else, %if.then
  %17 = load double, ptr %t, align 8, !tbaa !11
  call void @llvm.lifetime.end.p0(i64 8, ptr %t) #16
  ret double %17
}