; Function Attrs: mustprogress uwtable
define noundef double @_ZN8QuantLib21inflationYearFractionENS_9FrequencyEbRKNS_10DayCounterERKNS_4DateES6_(i32 noundef %f, i1 noundef zeroext %indexIsInterpolated, ptr noundef nonnull align 8 dereferenceable(16) %dayCounter, ptr noundef nonnull align 8 dereferenceable(8) %d1, ptr noundef nonnull align 8 dereferenceable(8) %d2) local_unnamed_addr #3 {
entry:
  %ref.tmp = alloca %"class.QuantLib::Date", align 8
  %ref.tmp1 = alloca %"class.QuantLib::Date", align 8
  %limD1 = alloca %"struct.std::pair", align 8
  %limD2 = alloca %"struct.std::pair", align 8
  %ref.tmp5 = alloca %"class.QuantLib::Date", align 8
  %ref.tmp6 = alloca %"class.QuantLib::Date", align 8
  br i1 %indexIsInterpolated, label %if.then, label %if.else

if.then:                                          ; preds = %entry
  call void @llvm.lifetime.start.p0(i64 8, ptr nonnull %ref.tmp) #18
  call void @_ZN8QuantLib4DateC1Ev(ptr noundef nonnull align 8 dereferenceable(8) %ref.tmp)
  call void @llvm.lifetime.start.p0(i64 8, ptr nonnull %ref.tmp1) #18
  call void @_ZN8QuantLib4DateC1Ev(ptr noundef nonnull align 8 dereferenceable(8) %ref.tmp1)
  %call = call noundef double @_ZNK8QuantLib10DayCounter12yearFractionERKNS_4DateES3_S3_S3_(ptr noundef nonnull align 8 dereferenceable(16) %dayCounter, ptr noundef nonnull align 8 dereferenceable(8) %d1, ptr noundef nonnull align 8 dereferenceable(8) %d2, ptr noundef nonnull align 8 dereferenceable(8) %ref.tmp, ptr noundef nonnull align 8 dereferenceable(8) %ref.tmp1)
  call void @llvm.lifetime.end.p0(i64 8, ptr nonnull %ref.tmp1) #18
  call void @llvm.lifetime.end.p0(i64 8, ptr nonnull %ref.tmp) #18
  br label %if.end

if.else:                                          ; preds = %entry
  call void @llvm.lifetime.start.p0(i64 16, ptr nonnull %limD1) #18
  %call2 = tail call { i64, i64 } @_ZN8QuantLib15inflationPeriodERKNS_4DateENS_9FrequencyE(ptr noundef nonnull align 8 dereferenceable(8) %d1, i32 noundef %f)
  %0 = extractvalue { i64, i64 } %call2, 0
  store i64 %0, ptr %limD1, align 8
  %1 = getelementptr inbounds nuw i8, ptr %limD1, i64 8
  %2 = extractvalue { i64, i64 } %call2, 1
  store i64 %2, ptr %1, align 8
  call void @llvm.lifetime.start.p0(i64 16, ptr nonnull %limD2) #18
  %call3 = tail call { i64, i64 } @_ZN8QuantLib15inflationPeriodERKNS_4DateENS_9FrequencyE(ptr noundef nonnull align 8 dereferenceable(8) %d2, i32 noundef %f)
  %3 = extractvalue { i64, i64 } %call3, 0
  store i64 %3, ptr %limD2, align 8
  %4 = getelementptr inbounds nuw i8, ptr %limD2, i64 8
  %5 = extractvalue { i64, i64 } %call3, 1
  store i64 %5, ptr %4, align 8
  call void @llvm.lifetime.start.p0(i64 8, ptr nonnull %ref.tmp5) #18
  call void @_ZN8QuantLib4DateC1Ev(ptr noundef nonnull align 8 dereferenceable(8) %ref.tmp5)
  call void @llvm.lifetime.start.p0(i64 8, ptr nonnull %ref.tmp6) #18
  call void @_ZN8QuantLib4DateC1Ev(ptr noundef nonnull align 8 dereferenceable(8) %ref.tmp6)
  %call7 = call noundef double @_ZNK8QuantLib10DayCounter12yearFractionERKNS_4DateES3_S3_S3_(ptr noundef nonnull align 8 dereferenceable(16) %dayCounter, ptr noundef nonnull align 8 dereferenceable(8) %limD1, ptr noundef nonnull align 8 dereferenceable(8) %limD2, ptr noundef nonnull align 8 dereferenceable(8) %ref.tmp5, ptr noundef nonnull align 8 dereferenceable(8) %ref.tmp6)
  call void @llvm.lifetime.end.p0(i64 8, ptr nonnull %ref.tmp6) #18
  call void @llvm.lifetime.end.p0(i64 8, ptr nonnull %ref.tmp5) #18
  call void @llvm.lifetime.end.p0(i64 16, ptr nonnull %limD2) #18
  call void @llvm.lifetime.end.p0(i64 16, ptr nonnull %limD1) #18
  br label %if.end

if.end:                                           ; preds = %if.else, %if.then
  %t.0 = phi double [ %call, %if.then ], [ %call7, %if.else ]
  ret double %t.0
}